; Function Attrs: mustprogress uwtable
define void @_ZN6icu_7710Normalizer5resetEv(ptr noundef nonnull align 8 captures(none) dereferenceable(116) initializes((40, 48), (112, 116)) %0) local_unnamed_addr #1 align 2 {
  %2 = getelementptr inbounds nuw i8, ptr %0, i64 32
  %3 = load ptr, ptr %2, align 8, !tbaa !19
  %4 = load ptr, ptr %3, align 8, !tbaa !3
  %5 = getelementptr inbounds nuw i8, ptr %4, i64 192
  %6 = load ptr, ptr %5, align 8
  %7 = tail call noundef i32 %6(ptr noundef nonnull align 8 dereferenceable(24) %3, i32 noundef 0, i32 noundef 0)
  %8 = getelementptr inbounds nuw i8, ptr %0, i64 44
  store i32 %7, ptr %8, align 4, !tbaa !21
  %9 = getelementptr inbounds nuw i8, ptr %0, i64 40
  store i32 %7, ptr %9, align 8, !tbaa !20
  %10 = getelementptr inbounds nuw i8, ptr %0, i64 56
  %11 = load i16, ptr %10, align 8, !tbaa !22
  %12 = and i16 %11, 1
  %.not.i.i = icmp eq i16 %12, 0
  %13 = and i16 %11, 30
  %storemerge.i.i = select i1 %.not.i.i, i16 %13, i16 2
  store i16 %storemerge.i.i, ptr %10, align 8, !tbaa !22
  %14 = getelementptr inbounds nuw i8, ptr %0, i64 112
  store i32 0, ptr %14, align 8, !tbaa !23
  ret void
}